; Function Attrs: mustprogress nofree nounwind willreturn memory(read, inaccessiblemem: none) uwtable
define hidden noundef zeroext i1 @_ZN14G1BarrierSetC218is_g1_pre_val_loadEP4Node(ptr nocapture noundef readonly %0) local_unnamed_addr #3 align 2 {
  %2 = getelementptr inbounds i8, ptr %0, i64 44
  %3 = load i32, ptr %2, align 4
  %4 = and i32 %3, 63
  %5 = icmp eq i32 %4, 48
  br i1 %5, label %6, label %48

6:                                                ; preds = %1
  %7 = getelementptr inbounds i8, ptr %0, i64 56
  %8 = load i32, ptr %7, align 8
  %9 = icmp eq i32 %8, 0
  br i1 %9, label %10, label %48

10:                                               ; preds = %6
  %11 = getelementptr inbounds i8, ptr %0, i64 32
  %12 = load i32, ptr %11, align 8
  %13 = icmp eq i32 %12, 1
  br i1 %13, label %14, label %22

14:                                               ; preds = %10
  %15 = getelementptr inbounds i8, ptr %0, i64 16
  %16 = load ptr, ptr %15, align 8
  %17 = load ptr, ptr %16, align 8
  %18 = getelementptr inbounds i8, ptr %17, i64 44
  %19 = load i32, ptr %18, align 4
  %20 = and i32 %19, 1023
  %21 = icmp eq i32 %20, 772
  %spec.select19 = select i1 %21, ptr %17, ptr %0
  %.phi.trans.insert = getelementptr inbounds i8, ptr %spec.select19, i64 32
  %.pre = load i32, ptr %.phi.trans.insert, align 8
  br label %22

22:                                               ; preds = %14, %10
  %23 = phi i32 [ %12, %10 ], [ %.pre, %14 ]
  %.015 = phi ptr [ %0, %10 ], [ %spec.select19, %14 ]
  %24 = icmp eq i32 %23, 3
  br i1 %24, label %.lr.ph.preheader, label %48

.lr.ph.preheader:                                 ; preds = %22
  %25 = getelementptr inbounds i8, ptr %.015, i64 16
  %26 = load ptr, ptr %25, align 8
  br label %.lr.ph

.lr.ph:                                           ; preds = %.lr.ph.preheader, %45
  %.01622 = phi i32 [ %.1, %45 ], [ 0, %.lr.ph.preheader ]
  %.sroa.3.021.idx = phi i64 [ %.sroa.3.021.add, %45 ], [ 0, %.lr.ph.preheader ]
  %.sroa.3.021.ptr = getelementptr inbounds i8, ptr %26, i64 %.sroa.3.021.idx
  %27 = load ptr, ptr %.sroa.3.021.ptr, align 8
  %28 = getelementptr inbounds i8, ptr %27, i64 44
  %29 = load i32, ptr %28, align 4
  %30 = and i32 %29, 255
  %31 = icmp eq i32 %30, 192
  %32 = and i32 %29, 127
  %33 = icmp eq i32 %32, 80
  %or.cond = or i1 %31, %33
  br i1 %or.cond, label %34, label %36

34:                                               ; preds = %.lr.ph
  %35 = add nsw i32 %.01622, 1
  br label %45

36:                                               ; preds = %.lr.ph
  %37 = and i32 %29, 63
  %38 = icmp eq i32 %37, 55
  br i1 %38, label %39, label %45

39:                                               ; preds = %36
  %40 = getelementptr inbounds i8, ptr %27, i64 120
  %41 = load ptr, ptr %40, align 8
  %42 = tail call i32 @strcmp(ptr noundef nonnull dereferenceable(1) %41, ptr noundef nonnull dereferenceable(26) @.str) #7
  %43 = icmp eq i32 %42, 0
  %44 = zext i1 %43 to i32
  %spec.select = add nsw i32 %.01622, %44
  br label %45

45:                                               ; preds = %39, %34, %36
  %.1 = phi i32 [ %35, %34 ], [ %.01622, %36 ], [ %spec.select, %39 ]
  %.sroa.3.021.add = add nuw nsw i64 %.sroa.3.021.idx, 8
  %46 = icmp ult i64 %.sroa.3.021.idx, 16
  br i1 %46, label %.lr.ph, label %._crit_edge, !llvm.loop !8

._crit_edge:                                      ; preds = %45
  %47 = icmp eq i32 %.1, 3
  br i1 %47, label %49, label %48

48:                                               ; preds = %22, %._crit_edge, %6, %1
  br label %49

49:                                               ; preds = %._crit_edge, %48
  %.0 = phi i1 [ false, %48 ], [ true, %._crit_edge ]
  ret i1 %.0
}